target datalayout = "e-m:e-p270:32:32-p271:32:32-p272:64:64-i64:64-i128:128-f80:128-n8:16:32:64-S128"
target triple = "x86_64-pc-linux-gnu"

%struct.OnigCalloutArgsStruct = type { i32, i32, i32, ptr, ptr, ptr, ptr, ptr, ptr, i64, ptr, ptr, ptr, ptr, ptr }
%struct.re_pattern_buffer = type { ptr, ptr, ptr, i32, i32, ptr, ptr, i32, i32, i32, i32, i32, i32, i32, i32, i32, ptr, ptr, i32, ptr, i32, ptr, i32, i32, i32, i32, i32, i32, ptr, ptr, [256 x i8], i32, i32, i32, ptr }
%struct._StackType = type { i32, i32, %union.anon.3 }
%union.anon.3 = type { %struct.anon.6 }
%struct.anon.6 = type { ptr, %union.StkPtrType, %union.StkPtrType }
%union.StkPtrType = type { i64 }

; Function Attrs: nounwind uwtable
define dso_local i32 @onig_get_capture_range_in_callout(ptr noundef %0, i32 noundef %1, ptr noundef %2, ptr noundef %3) #0 {
  %5 = alloca i32, align 4
  %6 = alloca ptr, align 8
  %7 = alloca i32, align 4
  %8 = alloca ptr, align 8
  %9 = alloca ptr, align 8
  %10 = alloca ptr, align 8
  %11 = alloca ptr, align 8
  %12 = alloca ptr, align 8
  %13 = alloca i32, align 4
  %14 = alloca ptr, align 8
  %15 = alloca ptr, align 8
  %16 = alloca i32, align 4
  store ptr %0, ptr %6, align 8, !tbaa !45
  store i32 %1, ptr %7, align 4, !tbaa !9
  store ptr %2, ptr %8, align 8, !tbaa !66
  store ptr %3, ptr %9, align 8, !tbaa !66
  call void @llvm.lifetime.start.p0(i64 8, ptr %10) #9
  call void @llvm.lifetime.start.p0(i64 8, ptr %11) #9
  call void @llvm.lifetime.start.p0(i64 8, ptr %12) #9
  call void @llvm.lifetime.start.p0(i64 4, ptr %13) #9
  call void @llvm.lifetime.start.p0(i64 8, ptr %14) #9
  call void @llvm.lifetime.start.p0(i64 8, ptr %15) #9
  %17 = load i32, ptr %7, align 4, !tbaa !9
  store i32 %17, ptr %13, align 4, !tbaa !9
  %18 = load ptr, ptr %6, align 8, !tbaa !45
  %19 = getelementptr inbounds nuw %struct.OnigCalloutArgsStruct, ptr %18, i32 0, i32 3
  %20 = load ptr, ptr %19, align 8, !tbaa !61
  store ptr %20, ptr %10, align 8, !tbaa !57
  %21 = load ptr, ptr %6, align 8, !tbaa !45
  %22 = getelementptr inbounds nuw %struct.OnigCalloutArgsStruct, ptr %21, i32 0, i32 4
  %23 = load ptr, ptr %22, align 8, !tbaa !163
  store ptr %23, ptr %11, align 8, !tbaa !60
  %24 = load ptr, ptr %6, align 8, !tbaa !45
  %25 = getelementptr inbounds nuw %struct.OnigCalloutArgsStruct, ptr %24, i32 0, i32 11
  %26 = load ptr, ptr %25, align 8, !tbaa !169
  store ptr %26, ptr %12, align 8, !tbaa !116
  %27 = load ptr, ptr %6, align 8, !tbaa !45
  %28 = getelementptr inbounds nuw %struct.OnigCalloutArgsStruct, ptr %27, i32 0, i32 13
  %29 = load ptr, ptr %28, align 8, !tbaa !171
  store ptr %29, ptr %14, align 8, !tbaa !17
  %30 = load ptr, ptr %6, align 8, !tbaa !45
  %31 = getelementptr inbounds nuw %struct.OnigCalloutArgsStruct, ptr %30, i32 0, i32 14
  %32 = load ptr, ptr %31, align 8, !tbaa !172
  store ptr %32, ptr %15, align 8, !tbaa !17
  %33 = load i32, ptr %13, align 4, !tbaa !9
  %34 = icmp sgt i32 %33, 0
  br i1 %34, label %35, label %133

35:                                               ; preds = %4
  %36 = load ptr, ptr %6, align 8, !tbaa !45
  %37 = getelementptr inbounds nuw %struct.OnigCalloutArgsStruct, ptr %36, i32 0, i32 14
  %38 = load ptr, ptr %37, align 8, !tbaa !172
  %39 = load i32, ptr %13, align 4, !tbaa !9
  %40 = sext i32 %39 to i64
  %41 = getelementptr inbounds %union.StkPtrType, ptr %38, i64 %40
  %42 = load i64, ptr %41, align 8, !tbaa !59
  %43 = icmp ne i64 %42, -1
  br i1 %43, label %44, label %129

44:                                               ; preds = %35
  %45 = load i32, ptr %13, align 4, !tbaa !9
  %46 = icmp slt i32 %45, 32
  br i1 %46, label %47, label %54

47:                                               ; preds = %44
  %48 = load ptr, ptr %10, align 8, !tbaa !57
  %49 = getelementptr inbounds nuw %struct.re_pattern_buffer, ptr %48, i32 0, i32 12
  %50 = load i32, ptr %49, align 4, !tbaa !122
  %51 = load i32, ptr %13, align 4, !tbaa !9
  %52 = shl i32 1, %51
  %53 = and i32 %50, %52
  br label %59

54:                                               ; preds = %44
  %55 = load ptr, ptr %10, align 8, !tbaa !57
  %56 = getelementptr inbounds nuw %struct.re_pattern_buffer, ptr %55, i32 0, i32 12
  %57 = load i32, ptr %56, align 4, !tbaa !122
  %58 = and i32 %57, 1
  br label %59

59:                                               ; preds = %54, %47
  %60 = phi i32 [ %53, %47 ], [ %58, %54 ]
  %61 = icmp ne i32 %60, 0
  br i1 %61, label %62, label %73

62:                                               ; preds = %59
  %63 = load ptr, ptr %12, align 8, !tbaa !116
  %64 = load ptr, ptr %14, align 8, !tbaa !17
  %65 = load i32, ptr %13, align 4, !tbaa !9
  %66 = sext i32 %65 to i64
  %67 = getelementptr inbounds %union.StkPtrType, ptr %64, i64 %66
  %68 = load i64, ptr %67, align 8, !tbaa !59
  %69 = getelementptr inbounds %struct._StackType, ptr %63, i64 %68
  %70 = getelementptr inbounds nuw %struct._StackType, ptr %69, i32 0, i32 2
  %71 = getelementptr inbounds nuw %struct.anon.6, ptr %70, i32 0, i32 0
  %72 = load ptr, ptr %71, align 8, !tbaa !59
  br label %79

73:                                               ; preds = %59
  %74 = load ptr, ptr %14, align 8, !tbaa !17
  %75 = load i32, ptr %13, align 4, !tbaa !9
  %76 = sext i32 %75 to i64
  %77 = getelementptr inbounds %union.StkPtrType, ptr %74, i64 %76
  %78 = load ptr, ptr %77, align 8, !tbaa !59
  br label %79

79:                                               ; preds = %73, %62
  %80 = phi ptr [ %72, %62 ], [ %78, %73 ]
  %81 = load ptr, ptr %11, align 8, !tbaa !60
  %82 = ptrtoint ptr %80 to i64
  %83 = ptrtoint ptr %81 to i64
  %84 = sub i64 %82, %83
  %85 = trunc i64 %84 to i32
  %86 = load ptr, ptr %8, align 8, !tbaa !66
  store i32 %85, ptr %86, align 4, !tbaa !9
  %87 = load i32, ptr %13, align 4, !tbaa !9
  %88 = icmp slt i32 %87, 32
  br i1 %88, label %89, label %96

89:                                               ; preds = %79
  %90 = load ptr, ptr %10, align 8, !tbaa !57
  %91 = getelementptr inbounds nuw %struct.re_pattern_buffer, ptr %90, i32 0, i32 13
  %92 = load i32, ptr %91, align 8, !tbaa !123
  %93 = load i32, ptr %13, align 4, !tbaa !9
  %94 = shl i32 1, %93
  %95 = and i32 %92, %94
  br label %101

96:                                               ; preds = %79
  %97 = load ptr, ptr %10, align 8, !tbaa !57
  %98 = getelementptr inbounds nuw %struct.re_pattern_buffer, ptr %97, i32 0, i32 13
  %99 = load i32, ptr %98, align 8, !tbaa !123
  %100 = and i32 %99, 1
  br label %101

101:                                              ; preds = %96, %89
  %102 = phi i32 [ %95, %89 ], [ %100, %96 ]
  %103 = icmp ne i32 %102, 0
  br i1 %103, label %104, label %115

104:                                              ; preds = %101
  %105 = load ptr, ptr %12, align 8, !tbaa !116
  %106 = load ptr, ptr %15, align 8, !tbaa !17
  %107 = load i32, ptr %13, align 4, !tbaa !9
  %108 = sext i32 %107 to i64
  %109 = getelementptr inbounds %union.StkPtrType, ptr %106, i64 %108
  %110 = load i64, ptr %109, align 8, !tbaa !59
  %111 = getelementptr inbounds %struct._StackType, ptr %105, i64 %110
  %112 = getelementptr inbounds nuw %struct._StackType, ptr %111, i32 0, i32 2
  %113 = getelementptr inbounds nuw %struct.anon.6, ptr %112, i32 0, i32 0
  %114 = load ptr, ptr %113, align 8, !tbaa !59
  br label %121

115:                                              ; preds = %101
  %116 = load ptr, ptr %15, align 8, !tbaa !17
  %117 = load i32, ptr %13, align 4, !tbaa !9
  %118 = sext i32 %117 to i64
  %119 = getelementptr inbounds %union.StkPtrType, ptr %116, i64 %118
  %120 = load ptr, ptr %119, align 8, !tbaa !59
  br label %121

121:                                              ; preds = %115, %104
  %122 = phi ptr [ %114, %104 ], [ %120, %115 ]
  %123 = load ptr, ptr %11, align 8, !tbaa !60
  %124 = ptrtoint ptr %122 to i64
  %125 = ptrtoint ptr %123 to i64
  %126 = sub i64 %124, %125
  %127 = trunc i64 %126 to i32
  %128 = load ptr, ptr %9, align 8, !tbaa !66
  store i32 %127, ptr %128, align 4, !tbaa !9
  br label %132

129:                                              ; preds = %35
  %130 = load ptr, ptr %9, align 8, !tbaa !66
  store i32 -1, ptr %130, align 4, !tbaa !9
  %131 = load ptr, ptr %8, align 8, !tbaa !66
  store i32 -1, ptr %131, align 4, !tbaa !9
  br label %132

132:                                              ; preds = %129, %121
  br label %134

133:                                              ; preds = %4
  store i32 -30, ptr %5, align 4
  store i32 1, ptr %16, align 4
  br label %135

134:                                              ; preds = %132
  store i32 0, ptr %5, align 4
  store i32 1, ptr %16, align 4
  br label %135

135:                                              ; preds = %134, %133
  call void @llvm.lifetime.end.p0(i64 8, ptr %15) #9
  call void @llvm.lifetime.end.p0(i64 8, ptr %14) #9
  call void @llvm.lifetime.end.p0(i64 4, ptr %13) #9
  call void @llvm.lifetime.end.p0(i64 8, ptr %12) #9
  call void @llvm.lifetime.end.p0(i64 8, ptr %11) #9
  call void @llvm.lifetime.end.p0(i64 8, ptr %10) #9
  %136 = load i32, ptr %5, align 4
  ret i32 %136
}